target datalayout = "e-m:e-p270:32:32-p271:32:32-p272:64:64-i64:64-i128:128-f80:128-n8:16:32:64-S128"
target triple = "x86_64-pc-linux-gnu"

@.str.56 = private unnamed_addr constant [4 x i8] c"Top\00", align 1
@.str.57 = private unnamed_addr constant [7 x i8] c"Bottom\00", align 1
@.str.58 = private unnamed_addr constant [5 x i8] c"Left\00", align 1
@.str.59 = private unnamed_addr constant [6 x i8] c"Right\00", align 1
@.str.60 = private unnamed_addr constant [8 x i8] c"Unknown\00", align 1

; Function Attrs: nounwind uwtable
define dso_local ptr @tab_pos_to_str(i32 noundef %0) #0 {
  %2 = alloca ptr, align 8
  %3 = alloca i32, align 4
  store i32 %0, ptr %3, align 4
  %4 = load i32, ptr %3, align 4
  switch i32 %4, label %9 [
    i32 2, label %5
    i32 3, label %6
    i32 0, label %7
    i32 1, label %8
  ]

5:                                                ; preds = %1
  store ptr @.str.56, ptr %2, align 8
  br label %10

6:                                                ; preds = %1
  store ptr @.str.57, ptr %2, align 8
  br label %10

7:                                                ; preds = %1
  store ptr @.str.58, ptr %2, align 8
  br label %10

8:                                                ; preds = %1
  store ptr @.str.59, ptr %2, align 8
  br label %10

9:                                                ; preds = %1
  store ptr @.str.60, ptr %2, align 8
  br label %10

10:                                               ; preds = %9, %8, %7, %6, %5
  %11 = load ptr, ptr %2, align 8
  ret ptr %11
}